; Function Attrs: nounwind uwtable
define internal void @SDL_CleanupTemporaryMemory(ptr noundef %0) #0 {
  %2 = tail call ptr @SDL_GetTLS_REAL(ptr noundef nonnull @SDL_temporary_memory) #8
  %.not.i = icmp eq ptr %2, null
  br i1 %.not.i, label %SDL_FreeTemporaryMemory.exit, label %.preheader.i

.preheader.i:                                     ; preds = %1
  %3 = load ptr, ptr %2, align 8
  %.not79.i = icmp eq ptr %3, null
  br i1 %.not79.i, label %SDL_FreeTemporaryMemory.exit, label %.lr.ph.i

.lr.ph.i:                                         ; preds = %.preheader.i
  %4 = getelementptr inbounds nuw i8, ptr %2, i64 8
  br label %5

5:                                                ; preds = %SDL_UnlinkTemporaryMemoryEntry.exit.i, %.lr.ph.i
  %6 = phi ptr [ %3, %.lr.ph.i ], [ %20, %SDL_UnlinkTemporaryMemoryEntry.exit.i ]
  %7 = getelementptr inbounds nuw i8, ptr %6, i64 16
  %8 = load ptr, ptr %7, align 8
  store ptr %8, ptr %2, align 8
  %9 = load ptr, ptr %4, align 8
  %10 = icmp eq ptr %9, %6
  %11 = getelementptr inbounds nuw i8, ptr %6, i64 8
  %12 = load ptr, ptr %11, align 8
  br i1 %10, label %13, label %._crit_edge.i.i

13:                                               ; preds = %5
  store ptr %12, ptr %4, align 8
  %.pre21.i.pre.i = load ptr, ptr %7, align 8
  br label %._crit_edge.i.i

._crit_edge.i.i:                                  ; preds = %13, %5
  %.pre21.i.i = phi ptr [ %.pre21.i.pre.i, %13 ], [ %8, %5 ]
  %.not.i8.i = icmp eq ptr %12, null
  br i1 %.not.i8.i, label %._crit_edge19.i.i, label %14

14:                                               ; preds = %._crit_edge.i.i
  %15 = getelementptr inbounds nuw i8, ptr %12, i64 16
  store ptr %.pre21.i.i, ptr %15, align 8
  br label %._crit_edge19.i.i

._crit_edge19.i.i:                                ; preds = %14, %._crit_edge.i.i
  %.not18.i.i = icmp eq ptr %.pre21.i.i, null
  br i1 %.not18.i.i, label %SDL_UnlinkTemporaryMemoryEntry.exit.i, label %16

16:                                               ; preds = %._crit_edge19.i.i
  %17 = load ptr, ptr %11, align 8
  %18 = getelementptr inbounds nuw i8, ptr %.pre21.i.i, i64 8
  store ptr %17, ptr %18, align 8
  br label %SDL_UnlinkTemporaryMemoryEntry.exit.i

SDL_UnlinkTemporaryMemoryEntry.exit.i:            ; preds = %16, %._crit_edge19.i.i
  tail call void @llvm.memset.p0.i64(ptr noundef nonnull align 8 dereferenceable(16) %11, i8 0, i64 16, i1 false)
  %19 = load ptr, ptr %6, align 8
  tail call void @SDL_free_REAL(ptr noundef %19) #8
  tail call void @SDL_free_REAL(ptr noundef nonnull %6) #8
  %20 = load ptr, ptr %2, align 8
  %.not7.i = icmp eq ptr %20, null
  br i1 %.not7.i, label %SDL_FreeTemporaryMemory.exit, label %5, !llvm.loop !5

SDL_FreeTemporaryMemory.exit:                     ; preds = %SDL_UnlinkTemporaryMemoryEntry.exit.i, %1, %.preheader.i
  tail call void @SDL_free_REAL(ptr noundef %0) #8
  ret void
}